target datalayout = "e-m:e-p270:32:32-p271:32:32-p272:64:64-i64:64-i128:128-f80:128-n8:16:32:64-S128"
target triple = "x86_64-pc-linux-gnu"

%struct.pm_lex_mode = type { i32, %union.anon, ptr }
%union.anon = type { %struct.anon.3 }
%struct.anon.3 = type { %struct.pm_heredoc_lex_mode_t, ptr, ptr, i8 }
%struct.pm_heredoc_lex_mode_t = type { ptr, i64, i32, i32 }
%struct.pm_parser = type { i32, i32, i32, i32, i32, i32, i32, %struct.anon, ptr, ptr, %struct.pm_token_t, %struct.pm_token_t, ptr, ptr, %struct.pm_list_t, %struct.pm_list_t, %struct.pm_location_t, %struct.pm_list_t, %struct.pm_list_t, ptr, ptr, ptr, ptr, ptr, ptr, ptr, %struct.pm_string_t, %struct.pm_constant_pool_t, %struct.pm_newline_list_t, i16, %struct.pm_string_t, i32, ptr, ptr, i32, i8, i8, i8, i8, i8, i8, i8, i8, i8, i8, i8, i8, i8 }
%struct.anon = type { ptr, [4 x %struct.pm_lex_mode], i64 }
%struct.pm_token_t = type { i32, ptr, ptr }
%struct.pm_location_t = type { ptr, ptr }
%struct.pm_list_t = type { i64, ptr, ptr }
%struct.pm_constant_pool_t = type { ptr, ptr, i32, i32 }
%struct.pm_newline_list_t = type { ptr, i64, i64, ptr }
%struct.pm_string_t = type { ptr, i64, i32 }
%struct.pm_node = type { i16, i16, i32, %struct.pm_location_t }
%struct.pm_global_variable_read_node = type { %struct.pm_node, i32 }
%struct.pm_back_reference_read_node = type { %struct.pm_node, i32 }
%struct.pm_global_variable_or_write_node = type { %struct.pm_node, i32, %struct.pm_location_t, %struct.pm_location_t, ptr }

@stderr = external global ptr, align 8
@.str.94 = private unnamed_addr constant [29 x i8] c"Failed to allocate %d bytes\0A\00", align 1

; Function Attrs: inlinehint nounwind sspstrong uwtable
define internal i32 @pm_parser_constant_id_location(ptr noundef %0, ptr noundef %1, ptr noundef %2) #7 {
  %4 = alloca ptr, align 8
  %5 = alloca ptr, align 8
  %6 = alloca ptr, align 8
  store ptr %0, ptr %4, align 8, !tbaa !7
  store ptr %1, ptr %5, align 8, !tbaa !12
  store ptr %2, ptr %6, align 8, !tbaa !12
  %7 = load ptr, ptr %4, align 8, !tbaa !7
  %8 = getelementptr inbounds nuw %struct.pm_parser, ptr %7, i32 0, i32 27
  %9 = load ptr, ptr %5, align 8, !tbaa !12
  %10 = load ptr, ptr %6, align 8, !tbaa !12
  %11 = load ptr, ptr %5, align 8, !tbaa !12
  %12 = ptrtoint ptr %10 to i64
  %13 = ptrtoint ptr %11 to i64
  %14 = sub i64 %12, %13
  %15 = call i32 @pm_constant_pool_insert_shared(ptr noundef %8, ptr noundef %9, i64 noundef %14)
  ret i32 %15
}

; Function Attrs: nounwind sspstrong uwtable
define internal i32 @pm_global_variable_write_name(ptr noundef %0, ptr noundef %1) #0 {
  %3 = alloca i32, align 4
  %4 = alloca ptr, align 8
  %5 = alloca ptr, align 8
  store ptr %0, ptr %4, align 8, !tbaa !7
  store ptr %1, ptr %5, align 8, !tbaa !128
  %6 = load ptr, ptr %5, align 8, !tbaa !128
  %7 = getelementptr inbounds nuw %struct.pm_node, ptr %6, i32 0, i32 0
  %8 = load i16, ptr %7, align 8, !tbaa !206
  %9 = zext i16 %8 to i32
  switch i32 %9, label %29 [
    i32 62, label %10
    i32 10, label %14
    i32 111, label %18
  ]

10:                                               ; preds = %2
  %11 = load ptr, ptr %5, align 8, !tbaa !128
  %12 = getelementptr inbounds nuw %struct.pm_global_variable_read_node, ptr %11, i32 0, i32 1
  %13 = load i32, ptr %12, align 8, !tbaa !535
  store i32 %13, ptr %3, align 4
  br label %30

14:                                               ; preds = %2
  %15 = load ptr, ptr %5, align 8, !tbaa !128
  %16 = getelementptr inbounds nuw %struct.pm_back_reference_read_node, ptr %15, i32 0, i32 1
  %17 = load i32, ptr %16, align 8, !tbaa !539
  store i32 %17, ptr %3, align 4
  br label %30

18:                                               ; preds = %2
  %19 = load ptr, ptr %4, align 8, !tbaa !7
  %20 = load ptr, ptr %5, align 8, !tbaa !128
  %21 = getelementptr inbounds nuw %struct.pm_node, ptr %20, i32 0, i32 3
  %22 = getelementptr inbounds nuw %struct.pm_location_t, ptr %21, i32 0, i32 0
  %23 = load ptr, ptr %22, align 8, !tbaa !223
  %24 = load ptr, ptr %5, align 8, !tbaa !128
  %25 = getelementptr inbounds nuw %struct.pm_node, ptr %24, i32 0, i32 3
  %26 = getelementptr inbounds nuw %struct.pm_location_t, ptr %25, i32 0, i32 1
  %27 = load ptr, ptr %26, align 8, !tbaa !224
  %28 = call i32 @pm_parser_constant_id_location(ptr noundef %19, ptr noundef %23, ptr noundef %27)
  store i32 %28, ptr %3, align 4
  br label %30

29:                                               ; preds = %2
  store i32 -1, ptr %3, align 4
  br label %30

30:                                               ; preds = %29, %18, %14, %10
  %31 = load i32, ptr %3, align 4
  ret i32 %31
}

; Function Attrs: inlinehint nounwind sspstrong uwtable
define internal ptr @pm_node_alloc(ptr noundef %0, i64 noundef %1) #7 {
  %3 = alloca ptr, align 8
  %4 = alloca i64, align 8
  %5 = alloca ptr, align 8
  store ptr %0, ptr %3, align 8, !tbaa !7
  store i64 %1, ptr %4, align 8, !tbaa !14
  call void @llvm.lifetime.start.p0(i64 8, ptr %5) #15
  %6 = load i64, ptr %4, align 8, !tbaa !14
  %7 = call noalias ptr @calloc(i64 noundef 1, i64 noundef %6) #18
  store ptr %7, ptr %5, align 8, !tbaa !57
  %8 = load ptr, ptr %5, align 8, !tbaa !57
  %9 = icmp eq ptr %8, null
  br i1 %9, label %10, label %15

10:                                               ; preds = %2
  %11 = load ptr, ptr @stderr, align 8, !tbaa !452
  %12 = load i64, ptr %4, align 8, !tbaa !14
  %13 = trunc i64 %12 to i32
  %14 = call i32 (ptr, i32, ptr, ...) @__fprintf_chk(ptr noundef %11, i32 noundef 1, ptr noundef @.str.94, i32 noundef %13)
  call void @abort() #19
  unreachable

15:                                               ; preds = %2
  %16 = load ptr, ptr %5, align 8, !tbaa !57
  call void @llvm.lifetime.end.p0(i64 8, ptr %5) #15
  ret ptr %16
}

; Function Attrs: nounwind sspstrong uwtable
define internal ptr @pm_global_variable_or_write_node_create(ptr noundef %0, ptr noundef %1, ptr noundef %2, ptr noundef %3) #0 {
  %5 = alloca ptr, align 8
  %6 = alloca ptr, align 8
  %7 = alloca ptr, align 8
  %8 = alloca ptr, align 8
  %9 = alloca ptr, align 8
  %10 = alloca %struct.pm_global_variable_or_write_node, align 8
  store ptr %0, ptr %5, align 8, !tbaa !7
  store ptr %1, ptr %6, align 8, !tbaa !128
  store ptr %2, ptr %7, align 8, !tbaa !57
  store ptr %3, ptr %8, align 8, !tbaa !128
  call void @llvm.lifetime.start.p0(i64 8, ptr %9) #15
  %11 = load ptr, ptr %5, align 8, !tbaa !7
  %12 = call ptr @pm_node_alloc(ptr noundef %11, i64 noundef 72)
  store ptr %12, ptr %9, align 8, !tbaa !1074
  %13 = load ptr, ptr %9, align 8, !tbaa !1074
  %14 = getelementptr inbounds nuw %struct.pm_global_variable_or_write_node, ptr %10, i32 0, i32 0
  %15 = getelementptr inbounds nuw %struct.pm_node, ptr %14, i32 0, i32 0
  store i16 61, ptr %15, align 8, !tbaa !206
  %16 = getelementptr inbounds nuw %struct.pm_node, ptr %14, i32 0, i32 1
  store i16 0, ptr %16, align 2, !tbaa !222
  %17 = getelementptr inbounds nuw %struct.pm_node, ptr %14, i32 0, i32 2
  %18 = load ptr, ptr %5, align 8, !tbaa !7
  %19 = getelementptr inbounds nuw %struct.pm_parser, ptr %18, i32 0, i32 0
  %20 = load i32, ptr %19, align 8, !tbaa !238
  %21 = add i32 %20, 1
  store i32 %21, ptr %19, align 8, !tbaa !238
  store i32 %21, ptr %17, align 4, !tbaa !239
  %22 = getelementptr inbounds nuw %struct.pm_node, ptr %14, i32 0, i32 3
  %23 = getelementptr inbounds nuw %struct.pm_location_t, ptr %22, i32 0, i32 0
  %24 = load ptr, ptr %6, align 8, !tbaa !128
  %25 = getelementptr inbounds nuw %struct.pm_node, ptr %24, i32 0, i32 3
  %26 = getelementptr inbounds nuw %struct.pm_location_t, ptr %25, i32 0, i32 0
  %27 = load ptr, ptr %26, align 8, !tbaa !223
  store ptr %27, ptr %23, align 8, !tbaa !152
  %28 = getelementptr inbounds nuw %struct.pm_location_t, ptr %22, i32 0, i32 1
  %29 = load ptr, ptr %8, align 8, !tbaa !128
  %30 = getelementptr inbounds nuw %struct.pm_node, ptr %29, i32 0, i32 3
  %31 = getelementptr inbounds nuw %struct.pm_location_t, ptr %30, i32 0, i32 1
  %32 = load ptr, ptr %31, align 8, !tbaa !224
  store ptr %32, ptr %28, align 8, !tbaa !153
  %33 = getelementptr inbounds nuw %struct.pm_global_variable_or_write_node, ptr %10, i32 0, i32 1
  %34 = load ptr, ptr %5, align 8, !tbaa !7
  %35 = load ptr, ptr %6, align 8, !tbaa !128
  %36 = call i32 @pm_global_variable_write_name(ptr noundef %34, ptr noundef %35)
  store i32 %36, ptr %33, align 8, !tbaa !1076
  %37 = getelementptr i8, ptr %10, i64 28
  call void @llvm.memset.p0.i64(ptr align 4 %37, i8 0, i64 4, i1 false)
  %38 = getelementptr inbounds nuw %struct.pm_global_variable_or_write_node, ptr %10, i32 0, i32 2
  %39 = load ptr, ptr %6, align 8, !tbaa !128
  %40 = getelementptr inbounds nuw %struct.pm_node, ptr %39, i32 0, i32 3
  call void @llvm.memcpy.p0.p0.i64(ptr align 8 %38, ptr align 8 %40, i64 16, i1 false), !tbaa.struct !241
  %41 = getelementptr inbounds nuw %struct.pm_global_variable_or_write_node, ptr %10, i32 0, i32 3
  %42 = getelementptr inbounds nuw %struct.pm_location_t, ptr %41, i32 0, i32 0
  %43 = load ptr, ptr %7, align 8, !tbaa !57
  %44 = getelementptr inbounds nuw %struct.pm_token_t, ptr %43, i32 0, i32 1
  %45 = load ptr, ptr %44, align 8, !tbaa !43
  store ptr %45, ptr %42, align 8, !tbaa !152
  %46 = getelementptr inbounds nuw %struct.pm_location_t, ptr %41, i32 0, i32 1
  %47 = load ptr, ptr %7, align 8, !tbaa !57
  %48 = getelementptr inbounds nuw %struct.pm_token_t, ptr %47, i32 0, i32 2
  %49 = load ptr, ptr %48, align 8, !tbaa !44
  store ptr %49, ptr %46, align 8, !tbaa !153
  %50 = getelementptr inbounds nuw %struct.pm_global_variable_or_write_node, ptr %10, i32 0, i32 4
  %51 = load ptr, ptr %8, align 8, !tbaa !128
  store ptr %51, ptr %50, align 8, !tbaa !1078
  call void @llvm.memcpy.p0.p0.i64(ptr align 8 %13, ptr align 8 %10, i64 72, i1 false), !tbaa.struct !958
  %52 = load ptr, ptr %9, align 8, !tbaa !1074
  call void @llvm.lifetime.end.p0(i64 8, ptr %9) #15
  ret ptr %52
}