; Function Attrs: nounwind sspstrong uwtable
define internal fastcc noalias nonnull ptr @pm_global_variable_or_write_node_create(ptr noundef %0, ptr noundef readonly captures(none) %1, ptr noundef nonnull readonly captures(none) %2, ptr noundef %3) unnamed_addr #1 {
  %5 = tail call noalias dereferenceable_or_null(72) ptr @calloc(i64 noundef 1, i64 noundef 72) #34
  %6 = icmp eq ptr %5, null
  br i1 %6, label %7, label %pm_node_alloc.exit

7:                                                ; preds = %4
  %8 = load ptr, ptr @stderr, align 8, !tbaa !105
  %9 = tail call i32 (ptr, i32, ptr, ...) @__fprintf_chk(ptr noundef %8, i32 noundef 1, ptr noundef nonnull @.str.94, i32 noundef 72) #31
  tail call void @abort() #35
  unreachable

pm_node_alloc.exit:                               ; preds = %4
  %10 = load i32, ptr %0, align 8, !tbaa !107
  %11 = add i32 %10, 1
  store i32 %11, ptr %0, align 8, !tbaa !107
  %12 = getelementptr inbounds nuw i8, ptr %1, i64 8
  %13 = load ptr, ptr %12, align 8, !tbaa !131
  %14 = getelementptr inbounds nuw i8, ptr %3, i64 16
  %15 = load ptr, ptr %14, align 8, !tbaa !132
  %16 = load i16, ptr %1, align 8, !tbaa !113
  switch i16 %16, label %pm_global_variable_write_name.exit [
    i16 62, label %17
    i16 10, label %20
    i16 111, label %23
  ]

17:                                               ; preds = %pm_node_alloc.exit
  %18 = getelementptr inbounds nuw i8, ptr %1, i64 24
  %19 = load i32, ptr %18, align 8, !tbaa !419
  br label %pm_global_variable_write_name.exit

20:                                               ; preds = %pm_node_alloc.exit
  %21 = getelementptr inbounds nuw i8, ptr %1, i64 24
  %22 = load i32, ptr %21, align 8, !tbaa !421
  br label %pm_global_variable_write_name.exit

23:                                               ; preds = %pm_node_alloc.exit
  %24 = getelementptr inbounds nuw i8, ptr %1, i64 16
  %25 = load ptr, ptr %24, align 8, !tbaa !132
  %26 = getelementptr inbounds nuw i8, ptr %0, i64 576
  %27 = ptrtoint ptr %25 to i64
  %28 = ptrtoint ptr %13 to i64
  %29 = sub i64 %27, %28
  %30 = tail call i32 @pm_constant_pool_insert_shared(ptr noundef nonnull %26, ptr noundef %13, i64 noundef %29) #31
  br label %pm_global_variable_write_name.exit

pm_global_variable_write_name.exit:               ; preds = %pm_node_alloc.exit, %17, %20, %23
  %.0.i = phi i32 [ %30, %23 ], [ %22, %20 ], [ %19, %17 ], [ -1, %pm_node_alloc.exit ]
  %.sroa.8.0..sroa_idx = getelementptr inbounds nuw i8, ptr %5, i64 32
  tail call void @llvm.memcpy.p0.p0.i64(ptr noundef nonnull align 8 dereferenceable(16) %.sroa.8.0..sroa_idx, ptr noundef nonnull align 8 dereferenceable(16) %12, i64 16, i1 false)
  %31 = getelementptr inbounds nuw i8, ptr %2, i64 8
  %32 = load ptr, ptr %31, align 8, !tbaa !125
  %33 = getelementptr inbounds nuw i8, ptr %2, i64 16
  %34 = load ptr, ptr %33, align 8, !tbaa !126
  store i16 61, ptr %5, align 8, !tbaa !108
  %.sroa.3.0..sroa_idx = getelementptr inbounds nuw i8, ptr %5, i64 4
  store i32 %11, ptr %.sroa.3.0..sroa_idx, align 4, !tbaa !7
  %.sroa.4.0..sroa_idx = getelementptr inbounds nuw i8, ptr %5, i64 8
  store ptr %13, ptr %.sroa.4.0..sroa_idx, align 8, !tbaa !14
  %.sroa.5.0..sroa_idx = getelementptr inbounds nuw i8, ptr %5, i64 16
  store ptr %15, ptr %.sroa.5.0..sroa_idx, align 8, !tbaa !14
  %.sroa.6.0..sroa_idx = getelementptr inbounds nuw i8, ptr %5, i64 24
  store i32 %.0.i, ptr %.sroa.6.0..sroa_idx, align 8, !tbaa !7
  %.sroa.9.0..sroa_idx = getelementptr inbounds nuw i8, ptr %5, i64 48
  store ptr %32, ptr %.sroa.9.0..sroa_idx, align 8, !tbaa !14
  %.sroa.10.0..sroa_idx = getelementptr inbounds nuw i8, ptr %5, i64 56
  store ptr %34, ptr %.sroa.10.0..sroa_idx, align 8, !tbaa !14
  %.sroa.11.0..sroa_idx = getelementptr inbounds nuw i8, ptr %5, i64 64
  store ptr %3, ptr %.sroa.11.0..sroa_idx, align 8, !tbaa !103
  ret ptr %5
}